target datalayout = "e-m:e-p270:32:32-p271:32:32-p272:64:64-i64:64-i128:128-f80:128-n8:16:32:64-S128"
target triple = "x86_64-pc-linux-gnu"

; Function Attrs: alwaysinline mustprogress nounwind uwtable
define internal noundef <8 x i64> @_ZL16_mm512_sub_epi64Dv8_xS_(<8 x i64> noundef %0, <8 x i64> noundef %1) #18 {
  %3 = alloca <8 x i64>, align 64
  %4 = alloca <8 x i64>, align 64
  store <8 x i64> %0, ptr %3, align 64, !tbaa !29
  store <8 x i64> %1, ptr %4, align 64, !tbaa !29
  %5 = load <8 x i64>, ptr %3, align 64, !tbaa !29
  %6 = load <8 x i64>, ptr %4, align 64, !tbaa !29
  %7 = sub <8 x i64> %5, %6
  ret <8 x i64> %7
}

; Function Attrs: alwaysinline mustprogress nounwind uwtable
define internal noundef <8 x i64> @_ZL16_mm512_add_epi64Dv8_xS_(<8 x i64> noundef %0, <8 x i64> noundef %1) #18 {
  %3 = alloca <8 x i64>, align 64
  %4 = alloca <8 x i64>, align 64
  store <8 x i64> %0, ptr %3, align 64, !tbaa !29
  store <8 x i64> %1, ptr %4, align 64, !tbaa !29
  %5 = load <8 x i64>, ptr %3, align 64, !tbaa !29
  %6 = load <8 x i64>, ptr %4, align 64, !tbaa !29
  %7 = add <8 x i64> %5, %6
  ret <8 x i64> %7
}

; Function Attrs: alwaysinline mustprogress nounwind uwtable
define internal noundef <8 x i64> @_ZL17_mm512_load_si512PKv(ptr noundef %0) #18 {
  %2 = alloca ptr, align 8
  store ptr %0, ptr %2, align 8, !tbaa !4
  %3 = load ptr, ptr %2, align 8, !tbaa !4
  %4 = load <8 x i64>, ptr %3, align 64, !tbaa !29
  ret <8 x i64> %4
}

; Function Attrs: alwaysinline mustprogress uwtable
define internal noundef <8 x i64> @_ZL21_mm512_mask_sub_epi64Dv8_xhS_S_(<8 x i64> noundef %0, i8 noundef zeroext %1, <8 x i64> noundef %2, <8 x i64> noundef %3) #11 {
  %5 = alloca <8 x i64>, align 64
  %6 = alloca i8, align 1
  %7 = alloca <8 x i64>, align 64
  %8 = alloca <8 x i64>, align 64
  store <8 x i64> %0, ptr %5, align 64, !tbaa !29
  store i8 %1, ptr %6, align 1, !tbaa !29
  store <8 x i64> %2, ptr %7, align 64, !tbaa !29
  store <8 x i64> %3, ptr %8, align 64, !tbaa !29
  %9 = load i8, ptr %6, align 1, !tbaa !29
  %10 = load <8 x i64>, ptr %7, align 64, !tbaa !29
  %11 = load <8 x i64>, ptr %8, align 64, !tbaa !29
  %12 = call noundef <8 x i64> @_ZL16_mm512_sub_epi64Dv8_xS_(<8 x i64> noundef %10, <8 x i64> noundef %11)
  %13 = load <8 x i64>, ptr %5, align 64, !tbaa !29
  %14 = bitcast i8 %9 to <8 x i1>
  %15 = select <8 x i1> %14, <8 x i64> %12, <8 x i64> %13
  ret <8 x i64> %15
}

; Function Attrs: alwaysinline mustprogress nounwind uwtable
define internal noundef <8 x i64> @_ZL16_mm512_set1_epi8c(i8 noundef signext %0) #18 {
  %2 = alloca i8, align 1
  %3 = alloca <64 x i8>, align 64
  store i8 %0, ptr %2, align 1, !tbaa !29
  %4 = load i8, ptr %2, align 1, !tbaa !29
  %5 = insertelement <64 x i8> poison, i8 %4, i32 0
  %6 = load i8, ptr %2, align 1, !tbaa !29
  %7 = insertelement <64 x i8> %5, i8 %6, i32 1
  %8 = load i8, ptr %2, align 1, !tbaa !29
  %9 = insertelement <64 x i8> %7, i8 %8, i32 2
  %10 = load i8, ptr %2, align 1, !tbaa !29
  %11 = insertelement <64 x i8> %9, i8 %10, i32 3
  %12 = load i8, ptr %2, align 1, !tbaa !29
  %13 = insertelement <64 x i8> %11, i8 %12, i32 4
  %14 = load i8, ptr %2, align 1, !tbaa !29
  %15 = insertelement <64 x i8> %13, i8 %14, i32 5
  %16 = load i8, ptr %2, align 1, !tbaa !29
  %17 = insertelement <64 x i8> %15, i8 %16, i32 6
  %18 = load i8, ptr %2, align 1, !tbaa !29
  %19 = insertelement <64 x i8> %17, i8 %18, i32 7
  %20 = load i8, ptr %2, align 1, !tbaa !29
  %21 = insertelement <64 x i8> %19, i8 %20, i32 8
  %22 = load i8, ptr %2, align 1, !tbaa !29
  %23 = insertelement <64 x i8> %21, i8 %22, i32 9
  %24 = load i8, ptr %2, align 1, !tbaa !29
  %25 = insertelement <64 x i8> %23, i8 %24, i32 10
  %26 = load i8, ptr %2, align 1, !tbaa !29
  %27 = insertelement <64 x i8> %25, i8 %26, i32 11
  %28 = load i8, ptr %2, align 1, !tbaa !29
  %29 = insertelement <64 x i8> %27, i8 %28, i32 12
  %30 = load i8, ptr %2, align 1, !tbaa !29
  %31 = insertelement <64 x i8> %29, i8 %30, i32 13
  %32 = load i8, ptr %2, align 1, !tbaa !29
  %33 = insertelement <64 x i8> %31, i8 %32, i32 14
  %34 = load i8, ptr %2, align 1, !tbaa !29
  %35 = insertelement <64 x i8> %33, i8 %34, i32 15
  %36 = load i8, ptr %2, align 1, !tbaa !29
  %37 = insertelement <64 x i8> %35, i8 %36, i32 16
  %38 = load i8, ptr %2, align 1, !tbaa !29
  %39 = insertelement <64 x i8> %37, i8 %38, i32 17
  %40 = load i8, ptr %2, align 1, !tbaa !29
  %41 = insertelement <64 x i8> %39, i8 %40, i32 18
  %42 = load i8, ptr %2, align 1, !tbaa !29
  %43 = insertelement <64 x i8> %41, i8 %42, i32 19
  %44 = load i8, ptr %2, align 1, !tbaa !29
  %45 = insertelement <64 x i8> %43, i8 %44, i32 20
  %46 = load i8, ptr %2, align 1, !tbaa !29
  %47 = insertelement <64 x i8> %45, i8 %46, i32 21
  %48 = load i8, ptr %2, align 1, !tbaa !29
  %49 = insertelement <64 x i8> %47, i8 %48, i32 22
  %50 = load i8, ptr %2, align 1, !tbaa !29
  %51 = insertelement <64 x i8> %49, i8 %50, i32 23
  %52 = load i8, ptr %2, align 1, !tbaa !29
  %53 = insertelement <64 x i8> %51, i8 %52, i32 24
  %54 = load i8, ptr %2, align 1, !tbaa !29
  %55 = insertelement <64 x i8> %53, i8 %54, i32 25
  %56 = load i8, ptr %2, align 1, !tbaa !29
  %57 = insertelement <64 x i8> %55, i8 %56, i32 26
  %58 = load i8, ptr %2, align 1, !tbaa !29
  %59 = insertelement <64 x i8> %57, i8 %58, i32 27
  %60 = load i8, ptr %2, align 1, !tbaa !29
  %61 = insertelement <64 x i8> %59, i8 %60, i32 28
  %62 = load i8, ptr %2, align 1, !tbaa !29
  %63 = insertelement <64 x i8> %61, i8 %62, i32 29
  %64 = load i8, ptr %2, align 1, !tbaa !29
  %65 = insertelement <64 x i8> %63, i8 %64, i32 30
  %66 = load i8, ptr %2, align 1, !tbaa !29
  %67 = insertelement <64 x i8> %65, i8 %66, i32 31
  %68 = load i8, ptr %2, align 1, !tbaa !29
  %69 = insertelement <64 x i8> %67, i8 %68, i32 32
  %70 = load i8, ptr %2, align 1, !tbaa !29
  %71 = insertelement <64 x i8> %69, i8 %70, i32 33
  %72 = load i8, ptr %2, align 1, !tbaa !29
  %73 = insertelement <64 x i8> %71, i8 %72, i32 34
  %74 = load i8, ptr %2, align 1, !tbaa !29
  %75 = insertelement <64 x i8> %73, i8 %74, i32 35
  %76 = load i8, ptr %2, align 1, !tbaa !29
  %77 = insertelement <64 x i8> %75, i8 %76, i32 36
  %78 = load i8, ptr %2, align 1, !tbaa !29
  %79 = insertelement <64 x i8> %77, i8 %78, i32 37
  %80 = load i8, ptr %2, align 1, !tbaa !29
  %81 = insertelement <64 x i8> %79, i8 %80, i32 38
  %82 = load i8, ptr %2, align 1, !tbaa !29
  %83 = insertelement <64 x i8> %81, i8 %82, i32 39
  %84 = load i8, ptr %2, align 1, !tbaa !29
  %85 = insertelement <64 x i8> %83, i8 %84, i32 40
  %86 = load i8, ptr %2, align 1, !tbaa !29
  %87 = insertelement <64 x i8> %85, i8 %86, i32 41
  %88 = load i8, ptr %2, align 1, !tbaa !29
  %89 = insertelement <64 x i8> %87, i8 %88, i32 42
  %90 = load i8, ptr %2, align 1, !tbaa !29
  %91 = insertelement <64 x i8> %89, i8 %90, i32 43
  %92 = load i8, ptr %2, align 1, !tbaa !29
  %93 = insertelement <64 x i8> %91, i8 %92, i32 44
  %94 = load i8, ptr %2, align 1, !tbaa !29
  %95 = insertelement <64 x i8> %93, i8 %94, i32 45
  %96 = load i8, ptr %2, align 1, !tbaa !29
  %97 = insertelement <64 x i8> %95, i8 %96, i32 46
  %98 = load i8, ptr %2, align 1, !tbaa !29
  %99 = insertelement <64 x i8> %97, i8 %98, i32 47
  %100 = load i8, ptr %2, align 1, !tbaa !29
  %101 = insertelement <64 x i8> %99, i8 %100, i32 48
  %102 = load i8, ptr %2, align 1, !tbaa !29
  %103 = insertelement <64 x i8> %101, i8 %102, i32 49
  %104 = load i8, ptr %2, align 1, !tbaa !29
  %105 = insertelement <64 x i8> %103, i8 %104, i32 50
  %106 = load i8, ptr %2, align 1, !tbaa !29
  %107 = insertelement <64 x i8> %105, i8 %106, i32 51
  %108 = load i8, ptr %2, align 1, !tbaa !29
  %109 = insertelement <64 x i8> %107, i8 %108, i32 52
  %110 = load i8, ptr %2, align 1, !tbaa !29
  %111 = insertelement <64 x i8> %109, i8 %110, i32 53
  %112 = load i8, ptr %2, align 1, !tbaa !29
  %113 = insertelement <64 x i8> %111, i8 %112, i32 54
  %114 = load i8, ptr %2, align 1, !tbaa !29
  %115 = insertelement <64 x i8> %113, i8 %114, i32 55
  %116 = load i8, ptr %2, align 1, !tbaa !29
  %117 = insertelement <64 x i8> %115, i8 %116, i32 56
  %118 = load i8, ptr %2, align 1, !tbaa !29
  %119 = insertelement <64 x i8> %117, i8 %118, i32 57
  %120 = load i8, ptr %2, align 1, !tbaa !29
  %121 = insertelement <64 x i8> %119, i8 %120, i32 58
  %122 = load i8, ptr %2, align 1, !tbaa !29
  %123 = insertelement <64 x i8> %121, i8 %122, i32 59
  %124 = load i8, ptr %2, align 1, !tbaa !29
  %125 = insertelement <64 x i8> %123, i8 %124, i32 60
  %126 = load i8, ptr %2, align 1, !tbaa !29
  %127 = insertelement <64 x i8> %125, i8 %126, i32 61
  %128 = load i8, ptr %2, align 1, !tbaa !29
  %129 = insertelement <64 x i8> %127, i8 %128, i32 62
  %130 = load i8, ptr %2, align 1, !tbaa !29
  %131 = insertelement <64 x i8> %129, i8 %130, i32 63
  store <64 x i8> %131, ptr %3, align 64, !tbaa !29
  %132 = load <64 x i8>, ptr %3, align 64, !tbaa !29
  %133 = bitcast <64 x i8> %132 to <8 x i64>
  ret <8 x i64> %133
}

; Function Attrs: alwaysinline mustprogress nounwind uwtable
define internal noundef <8 x i64> @_ZL17_mm512_set1_epi64x(i64 noundef %0) #18 {
  %2 = alloca i64, align 8
  %3 = alloca <8 x i64>, align 64
  store i64 %0, ptr %2, align 8, !tbaa !70
  %4 = load i64, ptr %2, align 8, !tbaa !70
  %5 = insertelement <8 x i64> poison, i64 %4, i32 0
  %6 = load i64, ptr %2, align 8, !tbaa !70
  %7 = insertelement <8 x i64> %5, i64 %6, i32 1
  %8 = load i64, ptr %2, align 8, !tbaa !70
  %9 = insertelement <8 x i64> %7, i64 %8, i32 2
  %10 = load i64, ptr %2, align 8, !tbaa !70
  %11 = insertelement <8 x i64> %9, i64 %10, i32 3
  %12 = load i64, ptr %2, align 8, !tbaa !70
  %13 = insertelement <8 x i64> %11, i64 %12, i32 4
  %14 = load i64, ptr %2, align 8, !tbaa !70
  %15 = insertelement <8 x i64> %13, i64 %14, i32 5
  %16 = load i64, ptr %2, align 8, !tbaa !70
  %17 = insertelement <8 x i64> %15, i64 %16, i32 6
  %18 = load i64, ptr %2, align 8, !tbaa !70
  %19 = insertelement <8 x i64> %17, i64 %18, i32 7
  store <8 x i64> %19, ptr %3, align 64, !tbaa !29
  %20 = load <8 x i64>, ptr %3, align 64, !tbaa !29
  ret <8 x i64> %20
}

; Function Attrs: alwaysinline mustprogress uwtable
define internal void @_ZL28XXH3_initCustomSecret_avx512Pvm(ptr noundef %0, i64 noundef %1) #11 {
  %3 = alloca ptr, align 8
  %4 = alloca i64, align 8
  %5 = alloca i32, align 4
  %6 = alloca <8 x i64>, align 64
  %7 = alloca <8 x i64>, align 64
  %8 = alloca ptr, align 8
  %9 = alloca ptr, align 8
  %10 = alloca i32, align 4
  store ptr %0, ptr %3, align 8, !tbaa !4
  store i64 %1, ptr %4, align 8, !tbaa !8
  br label %11

11:                                               ; preds = %2
  br label %12

12:                                               ; preds = %11
  br label %13

13:                                               ; preds = %12
  br label %14

14:                                               ; preds = %13
  %15 = load ptr, ptr %3, align 8, !tbaa !4
  %16 = ptrtoint ptr %15 to i64
  %17 = and i64 %16, 63
  %18 = icmp eq i64 %17, 0
  br i1 %18, label %20, label %19

19:                                               ; preds = %14
  unreachable

20:                                               ; preds = %14
  call void @llvm.lifetime.start.p0(i64 4, ptr %5) #22
  store i32 3, ptr %5, align 4, !tbaa !10
  call void @llvm.lifetime.start.p0(i64 64, ptr %6) #22
  %21 = load i64, ptr %4, align 8, !tbaa !8
  %22 = call noundef <8 x i64> @_ZL17_mm512_set1_epi64x(i64 noundef %21)
  store <8 x i64> %22, ptr %6, align 64, !tbaa !29
  call void @llvm.lifetime.start.p0(i64 64, ptr %7) #22
  %23 = load <8 x i64>, ptr %6, align 64, !tbaa !29
  %24 = call noundef <8 x i64> @_ZL16_mm512_set1_epi8c(i8 noundef signext 0)
  %25 = load <8 x i64>, ptr %6, align 64, !tbaa !29
  %26 = call noundef <8 x i64> @_ZL21_mm512_mask_sub_epi64Dv8_xhS_S_(<8 x i64> noundef %23, i8 noundef zeroext -86, <8 x i64> noundef %24, <8 x i64> noundef %25)
  store <8 x i64> %26, ptr %7, align 64, !tbaa !29
  call void @llvm.lifetime.start.p0(i64 8, ptr %8) #22
  store ptr @_ZL12XXH3_kSecret, ptr %8, align 8, !tbaa !4
  call void @llvm.lifetime.start.p0(i64 8, ptr %9) #22
  %27 = load ptr, ptr %3, align 8, !tbaa !4
  store ptr %27, ptr %9, align 8, !tbaa !4
  call void @llvm.lifetime.start.p0(i64 4, ptr %10) #22
  br i1 true, label %29, label %28

28:                                               ; preds = %20
  unreachable

29:                                               ; preds = %20
  %30 = load ptr, ptr %9, align 8, !tbaa !4
  %31 = ptrtoint ptr %30 to i64
  %32 = and i64 %31, 63
  %33 = icmp eq i64 %32, 0
  br i1 %33, label %35, label %34

34:                                               ; preds = %29
  unreachable

35:                                               ; preds = %29
  store i32 0, ptr %10, align 4, !tbaa !10
  br label %36

36:                                               ; preds = %50, %35
  %37 = load i32, ptr %10, align 4, !tbaa !10
  %38 = icmp slt i32 %37, 3
  br i1 %38, label %39, label %53

39:                                               ; preds = %36
  %40 = load i32, ptr %10, align 4, !tbaa !10
  %41 = sext i32 %40 to i64
  %42 = getelementptr inbounds <8 x i64>, ptr @_ZL12XXH3_kSecret, i64 %41
  %43 = call noundef <8 x i64> @_ZL17_mm512_load_si512PKv(ptr noundef %42)
  %44 = load <8 x i64>, ptr %7, align 64, !tbaa !29
  %45 = call noundef <8 x i64> @_ZL16_mm512_add_epi64Dv8_xS_(<8 x i64> noundef %43, <8 x i64> noundef %44)
  %46 = load ptr, ptr %9, align 8, !tbaa !4
  %47 = load i32, ptr %10, align 4, !tbaa !10
  %48 = sext i32 %47 to i64
  %49 = getelementptr inbounds <8 x i64>, ptr %46, i64 %48
  store <8 x i64> %45, ptr %49, align 64, !tbaa !29
  br label %50

50:                                               ; preds = %39
  %51 = load i32, ptr %10, align 4, !tbaa !10
  %52 = add nsw i32 %51, 1
  store i32 %52, ptr %10, align 4, !tbaa !10
  br label %36, !llvm.loop !48

53:                                               ; preds = %36
  call void @llvm.lifetime.end.p0(i64 4, ptr %10) #22
  call void @llvm.lifetime.end.p0(i64 8, ptr %9) #22
  call void @llvm.lifetime.end.p0(i64 8, ptr %8) #22
  call void @llvm.lifetime.end.p0(i64 64, ptr %7) #22
  call void @llvm.lifetime.end.p0(i64 64, ptr %6) #22
  call void @llvm.lifetime.end.p0(i64 4, ptr %5) #22
  ret void
}

; Function Attrs: mustprogress uwtable
define void @ROCKSDB_XXH3_generateSecret_fromSeed(ptr noundef captures(none) %0, i64 noundef %1) #3 {
  %3 = alloca ptr, align 8
  %4 = alloca i64, align 8
  %5 = alloca [192 x i8], align 64
  store ptr %0, ptr %3, align 8, !tbaa !4
  store i64 %1, ptr %4, align 8, !tbaa !8
  call void @llvm.lifetime.start.p0(i64 192, ptr %5) #22
  %6 = getelementptr inbounds [192 x i8], ptr %5, i64 0, i64 0
  %7 = load i64, ptr %4, align 8, !tbaa !8
  call void @_ZL28XXH3_initCustomSecret_avx512Pvm(ptr noundef %6, i64 noundef %7)
  %8 = load ptr, ptr %3, align 8, !tbaa !4
  %9 = icmp ne ptr %8, null
  br i1 %9, label %11, label %10

10:                                               ; preds = %2
  unreachable

11:                                               ; preds = %2
  %12 = load ptr, ptr %3, align 8, !tbaa !4
  %13 = getelementptr inbounds [192 x i8], ptr %5, i64 0, i64 0
  call void @llvm.memcpy.p0.p0.i64(ptr align 1 %12, ptr align 64 %13, i64 192, i1 false)
  call void @llvm.lifetime.end.p0(i64 192, ptr %5) #22
  ret void
}