; Function Attrs: mustprogress nofree norecurse nosync nounwind memory(argmem: readwrite, inaccessiblemem: write) uwtable
define void @ROCKSDB_XXH3_generateSecret_fromSeed(ptr noundef writeonly captures(none) %0, i64 noundef %1) local_unnamed_addr #17 {
  %3 = alloca [192 x i8], align 64
  call void @llvm.lifetime.start.p0(i64 192, ptr nonnull %3) #34
  %4 = insertelement <8 x i64> poison, i64 %1, i64 0
  %5 = sub <8 x i64> <i64 0, i64 poison, i64 poison, i64 poison, i64 poison, i64 poison, i64 poison, i64 poison>, %4
  %6 = shufflevector <8 x i64> %5, <8 x i64> poison, <8 x i32> <i32 poison, i32 0, i32 poison, i32 0, i32 poison, i32 0, i32 poison, i32 0>
  %7 = shufflevector <8 x i64> %4, <8 x i64> %6, <8 x i32> <i32 0, i32 9, i32 0, i32 11, i32 0, i32 13, i32 0, i32 15>
  br label %8

8:                                                ; preds = %2, %8
  %indvars.iv = phi i64 [ 0, %2 ], [ %indvars.iv.next, %8 ]
  %9 = getelementptr inbounds nuw <8 x i64>, ptr @_ZL12XXH3_kSecret, i64 %indvars.iv
  %10 = load <8 x i64>, ptr %9, align 64, !tbaa !12
  %11 = add <8 x i64> %10, %7
  %12 = getelementptr inbounds nuw <8 x i64>, ptr %3, i64 %indvars.iv
  store <8 x i64> %11, ptr %12, align 64, !tbaa !12
  %indvars.iv.next = add nuw nsw i64 %indvars.iv, 1
  %exitcond.not = icmp eq i64 %indvars.iv.next, 3
  br i1 %exitcond.not, label %_ZL28XXH3_initCustomSecret_avx512Pvm.exit, label %8, !llvm.loop !32

_ZL28XXH3_initCustomSecret_avx512Pvm.exit:        ; preds = %8
  %13 = icmp ne ptr %0, null
  tail call void @llvm.assume(i1 %13)
  call void @llvm.memcpy.p0.p0.i64(ptr noundef nonnull align 1 dereferenceable(192) %0, ptr noundef nonnull align 64 dereferenceable(192) %3, i64 192, i1 false)
  call void @llvm.lifetime.end.p0(i64 192, ptr nonnull %3) #34
  ret void
}